; Function Attrs: nounwind uwtable
define ptr @l_Lean_Elab_Tactic_evalSimpAllTrace___lambda__4___boxed(ptr noundef %0, ptr noundef %1, ptr noundef %2, ptr noundef %3, ptr noundef %4, ptr noundef %5, ptr noundef %6, ptr noundef %7, ptr noundef %8, ptr noundef %9, ptr noundef %10, ptr noundef %11, ptr noundef %12, ptr noundef %13, ptr noundef %14, ptr noundef %15) local_unnamed_addr #0 {
  %17 = tail call ptr @l_Lean_Elab_Tactic_evalSimpAllTrace___lambda__4(ptr noundef %0, ptr noundef %1, ptr noundef %2, ptr noundef %3, ptr noundef %4, ptr poison, ptr noundef %6, ptr noundef %7, ptr noundef %8, ptr noundef %9, ptr noundef %10, ptr noundef %11, ptr noundef %12, ptr noundef %13, ptr noundef %14, ptr noundef %15)
  %18 = ptrtoint ptr %6 to i64
  %19 = and i64 %18, 1
  %.not = icmp eq i64 %19, 0
  br i1 %.not, label %20, label %lean_dec.exit25

20:                                               ; preds = %16
  %21 = load i32, ptr %6, align 4, !tbaa !4
  %22 = icmp sgt i32 %21, 1
  br i1 %22, label %23, label %25, !prof !11

23:                                               ; preds = %20
  %24 = add nsw i32 %21, -1
  store i32 %24, ptr %6, align 4, !tbaa !4
  br label %lean_dec.exit25

25:                                               ; preds = %20
  %.not.i = icmp eq i32 %21, 0
  br i1 %.not.i, label %lean_dec.exit25, label %26

26:                                               ; preds = %25
  tail call void @lean_dec_ref_cold(ptr noundef nonnull %6) #5
  br label %lean_dec.exit25

lean_dec.exit25:                                  ; preds = %26, %25, %23, %16
  %27 = ptrtoint ptr %5 to i64
  %28 = and i64 %27, 1
  %.not34 = icmp eq i64 %28, 0
  br i1 %.not34, label %29, label %lean_dec.exit24

29:                                               ; preds = %lean_dec.exit25
  %30 = load i32, ptr %5, align 4, !tbaa !4
  %31 = icmp sgt i32 %30, 1
  br i1 %31, label %32, label %34, !prof !11

32:                                               ; preds = %29
  %33 = add nsw i32 %30, -1
  store i32 %33, ptr %5, align 4, !tbaa !4
  br label %lean_dec.exit24

34:                                               ; preds = %29
  %.not.i26 = icmp eq i32 %30, 0
  br i1 %.not.i26, label %lean_dec.exit24, label %35

35:                                               ; preds = %34
  tail call void @lean_dec_ref_cold(ptr noundef nonnull %5) #5
  br label %lean_dec.exit24

lean_dec.exit24:                                  ; preds = %35, %34, %32, %lean_dec.exit25
  %36 = ptrtoint ptr %3 to i64
  %37 = and i64 %36, 1
  %.not35 = icmp eq i64 %37, 0
  br i1 %.not35, label %38, label %lean_dec.exit23

38:                                               ; preds = %lean_dec.exit24
  %39 = load i32, ptr %3, align 4, !tbaa !4
  %40 = icmp sgt i32 %39, 1
  br i1 %40, label %41, label %43, !prof !11

41:                                               ; preds = %38
  %42 = add nsw i32 %39, -1
  store i32 %42, ptr %3, align 4, !tbaa !4
  br label %lean_dec.exit23

43:                                               ; preds = %38
  %.not.i28 = icmp eq i32 %39, 0
  br i1 %.not.i28, label %lean_dec.exit23, label %44

44:                                               ; preds = %43
  tail call void @lean_dec_ref_cold(ptr noundef nonnull %3) #5
  br label %lean_dec.exit23

lean_dec.exit23:                                  ; preds = %44, %43, %41, %lean_dec.exit24
  %45 = ptrtoint ptr %1 to i64
  %46 = and i64 %45, 1
  %.not36 = icmp eq i64 %46, 0
  br i1 %.not36, label %47, label %lean_dec.exit22

47:                                               ; preds = %lean_dec.exit23
  %48 = load i32, ptr %1, align 4, !tbaa !4
  %49 = icmp sgt i32 %48, 1
  br i1 %49, label %50, label %52, !prof !11

50:                                               ; preds = %47
  %51 = add nsw i32 %48, -1
  store i32 %51, ptr %1, align 4, !tbaa !4
  br label %lean_dec.exit22

52:                                               ; preds = %47
  %.not.i30 = icmp eq i32 %48, 0
  br i1 %.not.i30, label %lean_dec.exit22, label %53

53:                                               ; preds = %52
  tail call void @lean_dec_ref_cold(ptr noundef nonnull %1) #5
  br label %lean_dec.exit22

lean_dec.exit22:                                  ; preds = %53, %52, %50, %lean_dec.exit23
  %54 = ptrtoint ptr %0 to i64
  %55 = and i64 %54, 1
  %.not37 = icmp eq i64 %55, 0
  br i1 %.not37, label %56, label %lean_dec.exit

56:                                               ; preds = %lean_dec.exit22
  %57 = load i32, ptr %0, align 4, !tbaa !4
  %58 = icmp sgt i32 %57, 1
  br i1 %58, label %59, label %61, !prof !11

59:                                               ; preds = %56
  %60 = add nsw i32 %57, -1
  store i32 %60, ptr %0, align 4, !tbaa !4
  br label %lean_dec.exit

61:                                               ; preds = %56
  %.not.i32 = icmp eq i32 %57, 0
  br i1 %.not.i32, label %lean_dec.exit, label %62

62:                                               ; preds = %61
  tail call void @lean_dec_ref_cold(ptr noundef nonnull %0) #5
  br label %lean_dec.exit

lean_dec.exit:                                    ; preds = %62, %61, %59, %lean_dec.exit22
  ret ptr %17
}